(lp1
(F0.88357528454789935
F0.28426578900302329
tp2
a(F0.16868236819873339
F0.80614338219898496
tp3
a(F0.46648420062807072
F0.50503884295542689
tp4
a(F0.049403358326398972
F0.66750572124972241
tp5
a(F0.99730967736632403
F0.57417708946004486
tp6
a(F0.42357679736419407
F0.64129690697580555
tp7
a(F0.24065170252968482
F0.88135082542841203
tp8
a(F0.13682887489939433
F0.76285145965476109
tp9
a(F0.88777243705936348
F0.26707757619817235
tp10
a(F0.24305163049099476
F0.94837815078639265
tp11
a(F0.74192282854472003
F0.034498394309407432
tp12
a(F0.03126852220643761
F0.61928330720108948
tp13
a(F0.19459016662393336
F0.79058866369295422
tp14
a(F0.80750887060253718
F0.13137591582871402
tp15
a(F0.72509008680852627
F0.19044646537836593
tp16
a(F0.91756937931607063
F0.32300521551048988
tp17
a(F0.0046136125342481904
F0.45246945557022666
tp18
a(F0.2476664597257775
F0.91316800908243101
tp19
a(F0.045713244511951245
F0.63210095635910657
tp20
a(F0.29706182345297583
F0.86768490928858077
tp21
a(F0.16054402341562934
F0.74481658203894507
tp22
a(F0.9968267241585097
F0.54170277950044932
tp23
a(F0.57072359967876851
F0.39750921526005478
tp24
a(F0.082219880328338713
F0.76459271472889712
tp25
a(F0.43801597074066423
F0.71614247264467235
tp26
a(F0.43975615058089745
F0.62826926913180947
tp27
a(F0.56612723151027522
F0.41399857284331365
tp28
a(F0.61027093882293104
F0.2680177927585351
tp29
a(F0.42579402088521412
F0.59074242272227273
tp30
a(F0.95140101489763007
F0.30016241944210253
tp31
a(F0.22046963015658649
F0.8872188407065067
tp32
a(F0.76714254229211754
F0.18037198507536767
tp33
a(F0.15600468102525356
F0.89705982765754833
tp34
a(F0.45897125642693459
F0.61560408777416209
tp35
a(F0.79371126209983245
F0.059480073293222378
tp36
a(F0.067760065052834384
F0.62948023005673825
tp37
a(F0.076204134289611369
F0.61795313947321351
tp38
a(F0.24902541544776891
F0.843592798784774
tp39
a(F0.8287626987510327
F0.16320606132683577
tp40
a(F0.48169483700846605
F0.51865078786376528
tp41
a(F0.51401032487297071
F0.55141234393047922
tp42
a(F0.29746971708995007
F0.84754146606083469
tp43
a(F0.34021448867964654
F0.921132733871178
tp44
a(F0.78667839828726227
F0.079826745092028348
tp45
a(F0.44016144605057306
F0.68328497250650522
tp46
a(F0.20346612770082106
F0.82868733276519657
tp47
a(F0.58084990562385908
F0.38214372863175539
tp48
a(F0.75058433193302376
F0.086028154632475179
tp49
a(F0.44902484573853607
F0.55608873400272218
tp50
a(F0.51311162971884339
F0.42259325688391003
tp51
a(F0.61959987545047113
F0.24791246421819912
tp52
a(F0.20578732140885858
F0.9289119128898562
tp53
a(F0.23451654339890204
F0.97226295858723333
tp54
a(F0.42638463535468984
F0.71553613837567076
tp55
a(F0.42548995852508775
F0.61546292514806111
tp56
a(F0.044357103232062545
F0.70881735473483276
tp57
a(F0.24337903258333671
F0.84373945068372158
tp58
a(F0.20929480911511511
F0.90527525237431539
tp59
a(F0.44714654957017252
F0.69320908964241967
tp60
a(F0.20843827726808206
F0.80058328841828974
tp61
a(F0.10654683925222297
F0.83541122701753068
tp62
a(F0.18429375218737765
F0.81826783439398687
tp63
a(F0.78224690144010611
F0.14385212383718843
tp64
a(F0.1863182834822833
F0.94110740452147257
tp65
a(F0.079364141406233046
F0.59368200702190399
tp66
a(F0.4389102653696485
F0.60812882603946561
tp67
a(F0.84278917277087462
F0.1635896162495997
tp68
a(F0.69217002974268693
F0.11143113259546948
tp69
a(F0.56102388756894572
F0.38170699029932953
tp70
a(F0.35844831511603159
F0.80245272380374089
tp71
a(F0.56846160204237439
F0.26080900973699483
tp72
a(F0.44671513574097632
F0.55207147325710171
tp73
a(F0.35895512705139587
F0.73098347825085142
tp74
a(F0.51567172333281186
F0.4999443838428726
tp75
a(F0.4053434751306525
F0.66470287134053097
tp76
a.