(lp1
(F0.24547930256382988
F0.8848941622957297
tp2
a(F0.21165481748153669
F0.8881613703585387
tp3
a(F0.0347775530131893
F0.51051374768076041
tp4
a(F0.28628840192997695
F0.96072163737013661
tp5
a(F0.19849686138711686
F0.78916886033177103
tp6
a(F0.19614453161484635
F0.91731107483013008
tp7
a(F0.6251128659026649
F0.22171782430160356
tp8
a(F0.5838772685384479
F0.36919972131427148
tp9
a(F0.1949132752181677
F0.88577423704342506
tp10
a(F0.79250813599431202
F0.19330076514038391
tp11
a(F0.87527993611612798
F0.251175114148458
tp12
a(F0.080460360450391066
F0.78581173474046251
tp13
a(F0.65591020021622259
F0.20315756282386405
tp14
a(F0.55668923284827265
F0.45679510313024863
tp15
a(F0.30277848199031221
F0.93983824549389228
tp16
a(F0.95989762935667167
F0.46343112759298688
tp17
a(F0.77585703584215526
F0.15396028901115774
tp18
a(F0.82976402445080644
F0.23135428568409053
tp19
a(F0.36392949972627653
F0.89714716625638213
tp20
a(F0.086462254714705367
F0.62474985899383551
tp21
a(F0.52988839587685543
F0.34637031232978011
tp22
a(F0.18349059845465288
F0.92962125216914793
tp23
a(F0.036733834203358851
F0.62846746177677892
tp24
a(F0.86533074836852197
F0.14252820390002002
tp25
a(F0.65946766365588705
F0.20728026201545019
tp26
a(F0.79155910836991783
F0.028725323334425026
tp27
a(F0.8533664904459658
F0.2603000851966647
tp28
a(F0.25649615085204469
F0.99055260943325674
tp29
a(F0.67903193609461976
F0.18156171573933963
tp30
a(F0.9846724484951721
F0.53289391194690949
tp31
a(F0.34613119881020327
F0.868944138158806
tp32
a(F0.99660515413826489
F0.50661027505271139
tp33
a(F0.49437349403997821
F0.55358197715145896
tp34
a(F0.43519677072982543
F0.69793737853645998
tp35
a(F0.46638746867176606
F0.48738198156838125
tp36
a(F0.54816951291658333
F0.43433324643674942
tp37
a(F0.45825629546033442
F0.68271369535021265
tp38
a(F0.6747214255603402
F0.1178806498283612
tp39
a(F0.985953528924291
F0.37484094509171445
tp40
a(F0.29385589412862601
F0.85700496462661679
tp41
a(F0.97427127069710562
F0.37827366629472375
tp42
a(F0.18619657205012374
F0.86969609717983887
tp43
a(F0.29750773874105296
F0.88113472234721946
tp44
a(F0.79279740165285606
F0.15293362055292439
tp45
a(F0.2220758866394652
F0.93115738578389817
tp46
a(F0.46482172841619651
F0.57522470215873589
tp47
a(F0.39386637003763125
F0.74982165510677212
tp48
a(F0.56492086298809918
F0.4023034333022093
tp49
a(F0.45641827229556808
F0.66393961615007768
tp50
a(F0.38989822492688642
F0.76336049572752052
tp51
a(F0.69040793822338387
F0.16044581546696338
tp52
a(F0.4381027247036956
F0.63786501141716678
tp53
a(F0.29803956445653634
F0.8372344737963604
tp54
a(F0.36317545654834338
F0.87096519008877027
tp55
a(F0.74523584195551906
F0.1304832519003174
tp56
a(F0.050186172639084758
F0.69171912762457166
tp57
a(F0.12210496447116648
F0.72599205407809142
tp58
a(F0.73738488279338998
F0.15525607610529882
tp59
a(F0.43316931220741417
F0.73105860672976619
tp60
a(F0.13255777306942795
F0.87313353035744812
tp61
a(F0.11316155112875448
F0.69124148116753537
tp62
a(F0.34126937453169182
F0.90521048471842014
tp63
a(F0.69544151303142088
F0.18576236225031406
tp64
a(F0.63710684137868356
F0.18372134881767144
tp65
a(F0.30444978856365179
F0.9088456195849971
tp66
a(F0.10198866959190778
F0.75277136902557007
tp67
a(F0.97009975394689796
F0.41488274853059826
tp68
a(F0.11503125929324509
F0.74768422456176953
tp69
a(F0.47171404054416843
F0.65140859355667224
tp70
a(F0.40169211201715771
F0.82022427845614565
tp71
a(F0.92521387027230695
F0.22825079023153655
tp72
a(F0.012364262947858973
F0.439564304485905
tp73
a(F0.6348181923255829
F0.19541335548068542
tp74
a(F0.52394021572099658
F0.37688853088741331
tp75
a(F0.65869943340999693
F0.10689178139983341
tp76
a.