(lp1
(F0.30345513880284047
F0.92307526231765746
tp2
a(F0.27630576687932984
F0.83410575401771359
tp3
a(F0.75444119310836122
F0.10200545719156331
tp4
a(F0.19876415197319541
F0.80550080390429779
tp5
a(F0.93234607911345635
F0.31792055119036539
tp6
a(F0.13874735037186259
F0.87457982866946793
tp7
a(F0.32348455400142084
F0.78171342116583298
tp8
a(F0.98542347864313762
F0.39066058130618508
tp9
a(F0.49376812456003261
F0.56232249484507679
tp10
a(F0.85363135574153948
F0.16985123589912721
tp11
a(F0.24218447280278022
F0.82909928622336349
tp12
a(F0.95621606475656662
F0.34534470426400049
tp13
a(F0.013334774854664611
F0.63036099730783746
tp14
a(F0.10946584369617107
F0.80509348598861719
tp15
a(F0.45996596199131479
F0.65713124656514021
tp16
a(F0.69333075315743975
F0.1014350801266931
tp17
a(F0.28212023609475056
F0.80331019491747779
tp18
a(F0.55704745359004582
F0.37346132243958785
tp19
a(F0.070367445878934065
F0.68554736751390311
tp20
a(F0.15655273179164741
F0.92042960030766563
tp21
a(F0.56582533478823727
F0.26705947955087506
tp22
a(F0.2406014167419448
F0.86531032449194445
tp23
a(F0.82511636088890472
F0.068306220527693112
tp24
a(F0.99756251189922729
F0.47163390389589555
tp25
a(F0.69944730797943022
F0.08761700547787496
tp26
a(F0.076642382822623478
F0.61770107526966944
tp27
a(F0.63444745999347774
F0.12883276525095511
tp28
a(F0.70292796119885192
F0.057009837540949904
tp29
a(F0.70986338160339868
F0.060673989456065433
tp30
a(F0.44098450220544461
F0.59197195980636474
tp31
a(F0.1677070543834055
F0.83731572202701876
tp32
a(F0.30026751948749042
F0.87187001093479199
tp33
a(F0.9146208864859805
F0.23025531014695333
tp34
a(F0.94869329340755515
F0.41708770665082157
tp35
a(F0.22208539579406961
F0.82371713251949319
tp36
a(F0.56985394835788306
F0.3071095464119144
tp37
a(F0.7462140494461037
F0.16551324704695511
tp38
a(F0.44224549813944536
F0.71767802205457143
tp39
a(F0.8570207121791158
F0.24243204700628559
tp40
a(F0.8581996983175989
F0.28884627742662417
tp41
a(F0.42758955986563651
F0.67238345318620529
tp42
a(F0.33262875534158243
F0.75382471368918569
tp43
a(F0.97903181721209209
F0.42465798850262931
tp44
a(F0.031763516085483445
F0.57014625979504241
tp45
a(F0.35707198304231114
F0.75653689921642697
tp46
a(F0.43988202447566249
F0.65596684099545288
tp47
a(F0.069793588156362052
F0.6969077745345007
tp48
a(F0.45626691805929842
F0.50887566594606592
tp49
a(F0.5329398649484981
F0.40863378181690679
tp50
a(F0.66152061810993645
F0.079095786217760297
tp51
a(F0.43480300268200678
F0.68472677572460527
tp52
a(F0.72351465125229297
F0.17598631860746561
tp53
a(F0.90262238538552197
F0.22688006454927737
tp54
a(F0.82609187316704213
F0.16351589547063433
tp55
a(F0.25067283034282406
F0.91841544610538528
tp56
a(F0.56178632510809778
F0.25883486611700246
tp57
a(F0.77733302554637085
F0.035433766344717857
tp58
a(F0.18998526946118877
F0.85639353577547928
tp59
a(F0.39022321643230462
F0.74129103701571442
tp60
a(F0.31354003735958869
F0.95182281551473957
tp61
a(F0.22283496713663464
F0.86415222254355217
tp62
a(F0.11379798258210083
F0.75340487005874013
tp63
a(F0.41356940438830359
F0.77079468348523728
tp64
a(F0.23846461629227633
F0.96160880318777497
tp65
a(F0.095603615815378129
F0.67997072478394394
tp66
a(F0.89750819272923443
F0.24497961461496051
tp67
a(F0.10847425844471159
F0.80193885995869363
tp68
a(F0.46741914791172434
F0.5283898313246248
tp69
a(F0.13333945038805772
F0.81530157226440836
tp70
a(F0.42032676165764771
F0.68588932192974039
tp71
a(F0.14078304776412898
F0.82501206448315334
tp72
a(F0.54326607155478102
F0.33912786038625053
tp73
a(F0.71788083817922244
F0.10571237720093872
tp74
a(F0.80829503911333256
F0.072869506561313885
tp75
a(F0.69832385874340319
F0.16463569791245464
tp76
a(F0.58097104755838824
F0.23369082964671262
tp77
a(F0.42150396693751413
F0.72886366299942074
tp78
a(F0.4632950341876414
F0.5320870486940017
tp79
a(F0.76080004385817712
F0.10858254442905355
tp80
a(F0.27054052166970621
F0.81044932624401722
tp81
a(F0.49734405258644354
F0.54734584792608909
tp82
a(F0.94333138281620899
F0.38047642871831122
tp83
a(F0.50360161034229245
F0.43350934056961354
tp84
a(F0.042630294635888411
F0.55384573839056339
tp85
a(F0.82709525556747898
F0.081950783141818667
tp86
a(F0.81572413379276765
F0.16841896053976654
tp87
a(F0.9685976477194691
F0.46523592713201956
tp88
a(F0.33784822792801628
F0.81977650710716388
tp89
a(F0.22937763843933057
F0.96468501050529121
tp90
a(F0.51702658049325534
F0.55116506039900415
tp91
a(F0.90343913648835017
F0.31758075443183764
tp92
a(F0.727654833804941
F0.17525717255457737
tp93
a(F0.508446004225656
F0.46599170760886266
tp94
a(F0.46224754611671703
F0.49690766920223634
tp95
a(F0.28578186650487203
F0.9594452230936944
tp96
a(F0.41809685298705612
F0.66963077970383433
tp97
a(F0.9511115214038548
F0.33886603934047888
tp98
a(F0.46857861315507654
F0.48572981075389149
tp99
a(F0.16777609120180292
F0.82609791569732205
tp100
a(F0.52055517754056335
F0.51839549093059867
tp101
a(F0.16829796989550638
F0.75905653466506917
tp102
a(F0.78115537465066587
F0.056317899215738598
tp103
a(F0.33822976273499739
F0.83665947306185229
tp104
a(F0.64339906064143626
F0.19021991305626845
tp105
a(F0.57479471306357799
F0.30705018160370234
tp106
a(F0.80690900372834162
F0.18969990018788715
tp107
a(F0.21037961701856411
F0.95699555213374066
tp108
a(F0.3541308776323423
F0.74953937882773269
tp109
a(F0.33891672282175789
F0.90229687863435193
tp110
a(F0.16394169656666158
F0.76365492422318226
tp111
a(F0.44675847896084631
F0.63813943189933353
tp112
a(F0.22439227908924597
F0.98870326054495605
tp113
a(F0.93699515836095781
F0.32093230054979266
tp114
a(F0.77574506897184292
F0.18186650158024167
tp115
a(F0.7656333509797254
F0.15560521066767199
tp116
a(F0.11090789270739443
F0.71081372665622167
tp117
a(F0.56708418461193844
F0.39192785367788163
tp118
a(F0.93596422930129552
F0.38768739996206797
tp119
a(F0.13588877778853647
F0.89107560614905457
tp120
a(F0.0041609803556854619
F0.48218362267373893
tp121
a(F0.62007052804353369
F0.16958755653433674
tp122
a(F0.43938561174024571
F0.6649643509306048
tp123
a(F0.53590139374470813
F0.32147657447148376
tp124
a(F0.82950061090870542
F0.16752882863187932
tp125
a(F0.32079169251075179
F0.76892116603473204
tp126
a(F0.093547281967371387
F0.71144428209267196
tp127
a(F0.53163293225711761
F0.38379884171368439
tp128
a(F0.32662181343471119
F0.86189832823075874
tp129
a(F0.36455176776655818
F0.7353793947223094
tp130
a(F0.78672437776162729
F0.048838503264253361
tp131
a(F0.0043472472947828633
F0.51990837052047789
tp132
a(F0.81554614888543453
F0.18944435834467299
tp133
a(F0.040509652799253226
F0.5972667894017879
tp134
a(F0.17339129934848618
F0.92428524694771341
tp135
a(F0.78460179680599762
F0.080044034620684601
tp136
a(F0.91973984845742529
F0.35336237733248055
tp137
a(F0.70618886170478956
F0.18996089127223154
tp138
a(F0.97242820602562918
F0.51054248064669194
tp139
a(F0.30207992848020981
F0.88698764629161486
tp140
a(F0.33719442757700124
F0.85306770505580454
tp141
a(F0.28844586677945272
F0.87971528491869566
tp142
a(F0.033389036764290947
F0.54235287004914956
tp143
a(F0.013534922544739203
F0.52996910068294734
tp144
a(F0.45200853735502167
F0.60308945334952646
tp145
a(F0.98112640461247702
F0.39953162189776603
tp146
a(F0.37583611352370005
F0.69640779053054036
tp147
a(F0.37474516433510585
F0.84764309086826961
tp148
a(F0.1715500825764984
F0.76319954881116492
tp149
a(F0.21243326731191214
F0.84382637936037941
tp150
a(F0.40131970333565981
F0.63818213723789796
tp151
a(F0.79937131149268392
F0.20593149781807005
tp152
a(F0.66709980019379789
F0.19651317946063573
tp153
a(F0.3110115860235817
F0.91861246518457862
tp154
a(F0.057224597189535431
F0.55370946335211291
tp155
a(F0.83837122961211419
F0.11149254708471673
tp156
a(F0.060483837866238899
F0.62873838154034434
tp157
a(F0.14503956004975516
F0.90814511392331865
tp158
a(F0.94003081022960533
F0.4502058210721821
tp159
a(F0.25450541906775659
F0.86564876433283811
tp160
a(F0.8544374345441913
F0.21568195377837107
tp161
a(F0.88997141683604331
F0.21562831068725663
tp162
a(F0.62202003081044277
F0.31041253316076678
tp163
a(F0.60265991660722307
F0.2788824388082185
tp164
a(F0.32055206264896785
F0.94475201347414783
tp165
a(F0.2777936707778651
F0.92714204616731277
tp166
a(F0.79027621443673013
F0.1231849502690761
tp167
a(F0.4841456050773516
F0.60265047724527654
tp168
a(F0.38988555701796268
F0.75969642878139343
tp169
a(F0.039885155221445312
F0.63741330972337873
tp170
a(F0.66770997663083897
F0.20690017803307087
tp171
a(F0.31795052371980015
F0.78069714179053529
tp172
a(F0.34233210911333833
F0.75185114324770463
tp173
a(F0.55702005347644434
F0.33607802461299197
tp174
a(F0.71847501920992418
F0.13822373372624797
tp175
a(F0.72275005520823044
F0.18214149291434217
tp176
a(F0.95470043218478617
F0.47552099734751385
tp177
a(F0.11793297961056248
F0.67860131743183871
tp178
a(F0.83950800957159644
F0.15564841405546909
tp179
a(F0.10851749036125502
F0.77208245716113866
tp180
a(F0.31503565936502587
F0.9604533068399469
tp181
a(F0.091308456429497253
F0.72704916159409572
tp182
a(F0.19838339856056342
F0.96819719653686365
tp183
a(F0.77531242145514245
F0.087440867803283417
tp184
a(F0.18628409530197287
F0.94333903440993239
tp185
a(F0.2212874498801205
F0.92807368530575585
tp186
a(F0.020713803829544575
F0.54973039052815031
tp187
a(F0.032605212983023213
F0.5710190898041122
tp188
a(F0.95727996887361944
F0.38701970262719887
tp189
a(F0.76267205306175856
F0.01652275115931226
tp190
a(F0.49320817554129681
F0.54158006993826724
tp191
a(F0.43139283522492722
F0.67297881859160624
tp192
a(F0.35587484851791928
F0.87574143988234354
tp193
a(F0.9902965601879643
F0.40670674923792643
tp194
a(F0.79684157800218258
F0.10994266587238054
tp195
a(F0.90548067249078823
F0.18522657979535784
tp196
a(F0.83040230425505512
F0.13846700350145091
tp197
a(F0.85225203743409284
F0.22742394038949176
tp198
a(F0.4409083977209125
F0.73840269051673324
tp199
a(F0.20752396355868252
F0.95175271190880117
tp200
a(F0.036692768378853824
F0.57375509895980181
tp201
a(F0.90919630584808486
F0.3020383532035868
tp202
a(F0.86598921606909229
F0.25649656169809421
tp203
a(F0.44445825492229429
F0.58378379640157441
tp204
a(F0.40185763083402293
F0.64594703095608597
tp205
a(F0.41752163793225705
F0.65074359418193883
tp206
a(F0.8467600817869616
F0.24464179430794189
tp207
a(F0.36197353644642971
F0.90131475130412964
tp208
a(F0.70802673412896988
F0.19038124627482991
tp209
a(F0.47056005306764748
F0.66913921092501871
tp210
a(F0.31653430181846132
F0.78246689886388276
tp211
a(F0.76035815649096106
F0.0061620796098443148
tp212
a(F0.68017840534311669
F0.22248683239514438
tp213
a(F0.68313393851367565
F0.03561606631601992
tp214
a(F0.79945050881910462
F0.17113358392151273
tp215
a(F0.9280277571790867
F0.30125470786103536
tp216
a(F0.69576150662408909
F0.11774130331552367
tp217
a(F0.29984687971464841
F0.95135891267517392
tp218
a(F0.29205032392144947
F0.86224616084634198
tp219
a(F0.052465417075727383
F0.59967318117013046
tp220
a(F0.59569373764739397
F0.24843983667991029
tp221
a(F0.164058777847365
F0.80532949030563672
tp222
a(F0.40914415928994208
F0.69249352194378555
tp223
a(F0.16620009496128041
F0.89200535734422792
tp224
a(F0.77746065234390349
F0.031808053064194694
tp225
a(F0.20617403942733681
F0.88931291379739763
tp226
a(F0.72546775344704928
F0.16829721520516203
tp227
a(F0.063420386012465801
F0.73140089195766667
tp228
a(F0.80777986184533623
F0.060976714550850838
tp229
a(F0.60261496861990715
F0.30226404958885555
tp230
a(F0.40868243025349538
F0.65938659453354243
tp231
a(F0.64230450475027101
F0.19309153819472769
tp232
a(F0.017671970687399341
F0.52980130421141325
tp233
a(F0.90330447054691809
F0.34058566682098523
tp234
a(F0.51024138549438947
F0.483598048588327
tp235
a(F0.0027617934962285151
F0.52414376815232944
tp236
a(F0.95146109960806946
F0.44271182229895933
tp237
a(F0.049124524462330621
F0.59500491649658149
tp238
a(F0.6632169449635692
F0.06078386161606919
tp239
a(F0.27036807569484411
F0.85915231917457213
tp240
a(F0.50288847508957601
F0.44407832079549692
tp241
a(F0.53116947312304164
F0.50024376486610123
tp242
a(F0.8375979728352777
F0.1302017214002763
tp243
a(F0.62624791634879895
F0.31330713000704735
tp244
a(F0.26288600247534755
F0.99623253592479921
tp245
a(F0.95684189505090822
F0.36832409765186369
tp246
a(F0.71921553884261447
F0.098931231061911165
tp247
a(F0.05548384982343102
F0.69642189425588963
tp248
a(F0.97944418260416477
F0.54143009429277933
tp249
a(F0.76749224009166483
F0.095543363095668604
tp250
a(F0.1310263210500201
F0.86486451051911195
tp251
a(F0.58957050512476428
F0.30131622632987154
tp252
a(F0.95027659093265682
F0.36363163635424156
tp253
a(F0.92686258879016425
F0.38196163147323714
tp254
a(F0.6601174056397574
F0.2451493108870498
tp255
a(F0.64153730514337881
F0.26565454496399898
tp256
a(F0.67058640832914795
F0.20666118705325562
tp257
a(F0.51672285537308837
F0.48882642555640143
tp258
a(F0.78388505857324597
F0.091129542536632344
tp259
a(F0.11644508343296545
F0.7303519670452604
tp260
a(F0.19874891883868517
F0.90265498553475099
tp261
a(F0.98305023151984805
F0.4353383818768678
tp262
a(F0.0062455545031531168
F0.55524410281954784
tp263
a(F0.75317255129091887
F0.1459994570639597
tp264
a(F0.65430578991825472
F0.23000314617925963
tp265
a(F0.65286986566386218
F0.25735173125526045
tp266
a(F0.38573217173171748
F0.77714140357589889
tp267
a(F0.087831770067767434
F0.71541672001298384
tp268
a(F0.26654416471492193
F0.92662991241741666
tp269
a(F0.62769576654165427
F0.23158128250958798
tp270
a(F0.69791715356698603
F0.097216585110612527
tp271
a(F0.67276259465879584
F0.23463589063277979
tp272
a(F0.16024507004685473
F0.8239965781189712
tp273
a(F0.092526190789700813
F0.64327039231249616
tp274
a(F0.26737116362826674
F0.91525789506555522
tp275
a(F0.4308198043578344
F0.64045793852511346
tp276
a(F0.32950487952982432
F0.77057989854462428
tp277
a(F0.73322189958921458
F0.20119896418319355
tp278
a(F0.96682718003736023
F0.4914596484301722
tp279
a(F0.79341344612723741
F0.17781252953652332
tp280
a(F0.70721108234384111
F0.066047351800300552
tp281
a(F0.90538791992800793
F0.26040228091326612
tp282
a(F0.51050936645059641
F0.49883580552749895
tp283
a(F0.74615184572589921
F0.024275879199361763
tp284
a(F0.36438846711794959
F0.82917553871566385
tp285
a(F0.87869470517374315
F0.16518172601547212
tp286
a(F0.35118235279902044
F0.75513139734119739
tp287
a(F0.75789474649661115
F0.034588127699748603
tp288
a(F0.86757646915328057
F0.25930150315586187
tp289
a(F0.86285975505356627
F0.18286162192677563
tp290
a(F0.32976230070624335
F0.88245168772086546
tp291
a(F0.4734016269413267
F0.51201743248697529
tp292
a(F0.39724755706291337
F0.81767933611450694
tp293
a(F0.26933416097941232
F0.97812074740031996
tp294
a(F0.52053277336533577
F0.46502755125052503
tp295
a(F0.45624085130028069
F0.65251826437379479
tp296
a(F0.11328539397002335
F0.73972169859732972
tp297
a(F0.80657930026622471
F0.21009961143028533
tp298
a(F0.97757438688355858
F0.41189801815147664
tp299
a(F0.53276591136114915
F0.32613074416992527
tp300
a(F0.66210580511497408
F0.25731419779202308
tp301
a(F0.15397661700260423
F0.78513321155376048
tp302
a(F0.49646303991110086
F0.51771995301477403
tp303
a(F0.50400858468573806
F0.48354502659905135
tp304
a(F0.72277848998377914
F0.17204586354507537
tp305
a(F0.15027594890676688
F0.73974593159620983
tp306
a(F0.19721668168856543
F0.93921230398822164
tp307
a(F0.10623623247646663
F0.65680538601927474
tp308
a(F0.71029820450372472
F0.15011929699531351
tp309
a(F0.11201396919252582
F0.80670742517829408
tp310
a(F0.40909674677215813
F0.64388205639485019
tp311
a(F0.64410378326621354
F0.15247063793084709
tp312
a(F0.95617789587544288
F0.32222361271613054
tp313
a(F0.63987651976436277
F0.21694282116624636
tp314
a(F0.93965337615607425
F0.26577231704799098
tp315
a(F0.13684736679829568
F0.79201523779039695
tp316
a(F0.30616342654907625
F0.92611698289321653
tp317
a(F0.056607853072217162
F0.73318351659000136
tp318
a(F0.81670777448473209
F0.13425860077156532
tp319
a(F0.24033087934795416
F0.89730466076491811
tp320
a(F0.46827418565256562
F0.52732870621477335
tp321
a(F0.33017473678718889
F0.91460254492026505
tp322
a(F0.50162135106744987
F0.55077468646224648
tp323
a(F0.11392815534421996
F0.68676513578312148
tp324
a(F0.19629067073225581
F0.79592017314085528
tp325
a(F0.87419398689317274
F0.20031631983402592
tp326
a(F0.49527915074853679
F0.61165204412417651
tp327
a(F0.13954166851311156
F0.79338708004871761
tp328
a(F0.38357969646003942
F0.79466974413732649
tp329
a(F0.5425602165382406
F0.41922704816752171
tp330
a(F0.023428076196653991
F0.65101351722141376
tp331
a(F0.80391051060056773
F0.072707332955522772
tp332
a(F0.57734499433548381
F0.23449556686018513
tp333
a(F0.67147646697170094
F0.21525081916104044
tp334
a(F0.98984172567582096
F0.38411785723693842
tp335
a(F0.61624696769879861
F0.13699371321578507
tp336
a(F0.2647646193753912
F0.86589779022398983
tp337
a(F0.049678238980666478
F0.53074142168179461
tp338
a(F0.092286002914099718
F0.64620971956197171
tp339
a(F0.68450011846215153
F0.21041464185647474
tp340
a(F0.70530295894973261
F0.13662116300101762
tp341
a(F0.97325691950322757
F0.44519014154756653
tp342
a(F0.69745352607628475
F0.07541730678667985
tp343
a(F0.82431691516618677
F0.23829107201759919
tp344
a(F0.4968624016314791
F0.50506104961478704
tp345
a(F0.59502244148927641
F0.22646223550237901
tp346
a(F0.41050452242638913
F0.6550938855416738
tp347
a(F0.3663214052950392
F0.8257600585027447
tp348
a(F0.84347222397540955
F0.13601996805446245
tp349
a(F0.88443800940039352
F0.27671465854285615
tp350
a(F0.24237536816218441
F0.93971508061867715
tp351
a(F0.95814372373169054
F0.33088417784212498
tp352
a(F0.68088785983247446
F0.20003772589555976
tp353
a(F0.807469001287207
F0.07930573422129665
tp354
a(F0.013555606543390941
F0.44657427625622098
tp355
a(F0.71018843782029561
F0.04662151778334292
tp356
a(F0.6245001631467807
F0.25480474311385748
tp357
a(F0.16284684603043653
F0.78232408979635637
tp358
a(F0.16638540338411367
F0.76970133508166783
tp359
a(F0.82726037563472177
F0.21200182737446491
tp360
a(F0.057631386547405627
F0.69138041017177998
tp361
a(F0.54179553946062531
F0.30005427853279498
tp362
a(F0.22672783854377665
F0.98940739412264578
tp363
a(F0.4719519120540735
F0.58701396854263621
tp364
a(F0.07955401634863879
F0.61380684060390878
tp365
a(F0.5106641941174529
F0.46651056071451213
tp366
a(F0.32099780487061269
F0.95913432949105526
tp367
a(F0.97883964977506799
F0.49608711136182426
tp368
a(F0.007573965949199124
F0.60351401685946393
tp369
a(F0.57956073783141426
F0.35386652932489771
tp370
a(F0.67109467510130083
F0.15813419752553334
tp371
a(F0.75036756166863006
F0.16889062300104724
tp372
a(F0.36496546540096242
F0.82331504183340498
tp373
a(F0.45216290386105895
F0.69353984610643815
tp374
a(F0.56541465411888681
F0.3894825185638589
tp375
a(F0.22992962915641957
F0.84744490029194008
tp376
a(F0.37157536851129569
F0.86445762314321395
tp377
a(F0.45629937041213986
F0.68801611375364158
tp378
a(F0.045500677855314864
F0.63873080846221264
tp379
a(F0.19334684541168945
F0.92020815435352099
tp380
a(F0.28239432131913633
F0.82513079416781598
tp381
a(F0.78267722250742955
F0.1603917173253207
tp382
a(F0.11503261681099441
F0.7938266425711421
tp383
a(F0.31978739271462842
F0.83633564079329348
tp384
a(F0.89387908460980636
F0.29755058282110625
tp385
a(F0.19970942599617869
F0.85584179170237051
tp386
a(F0.31833202113588777
F0.8304646850736539
tp387
a(F0.90378788643814845
F0.34632449467293347
tp388
a(F0.56992754379913924
F0.37962108741372536
tp389
a(F0.57288959551664964
F0.3477194928397368
tp390
a(F0.52600251192501901
F0.36251362691743777
tp391
a(F0.91255981096396122
F0.30646510646003267
tp392
a(F0.83295472229846801
F0.12403860238726483
tp393
a(F0.80833774404388437
F0.1568248622449393
tp394
a(F0.24212824635649466
F0.8560055581790591
tp395
a(F0.012475765953852247
F0.60408527982803806
tp396
a(F0.08673184690994884
F0.78759071149768456
tp397
a(F0.80896505308695621
F0.18584081136075645
tp398
a(F0.77783261302462059
F0.099914524869907304
tp399
a(F0.55599508410247023
F0.32726983407474303
tp400
a(F0.56869134121557041
F0.37318504706997591
tp401
a(F0.4365600832424068
F0.65316855113682804
tp402
a(F0.45193994061422404
F0.57464140028845634
tp403
a(F0.12700158218615409
F0.82705823166908388
tp404
a(F0.55680779778832379
F0.38062871700454343
tp405
a(F0.2383292044395886
F0.88142234621868276
tp406
a(F0.72777008355025108
F0.16338260826973736
tp407
a(F0.10041432957536867
F0.83081038664203766
tp408
a(F0.22184946820256357
F0.81751312880465998
tp409
a(F0.68814478035201521
F0.15503718989949331
tp410
a(F0.75850832277674463
F0.0589007253036525
tp411
a(F0.96063806972447574
F0.4606002382517167
tp412
a(F0.95118659333577549
F0.37270163517790561
tp413
a(F0.98420102994587366
F0.5223251470074145
tp414
a(F0.63192568252065717
F0.30478343878214575
tp415
a(F0.63183767532163226
F0.16910131816218871
tp416
a(F0.28777175115412212
F0.85318358380892301
tp417
a(F0.87513714015408917
F0.18998587071027478
tp418
a(F0.70684491596091015
F0.21118610849576866
tp419
a(F0.86848951432557209
F0.28599356131019227
tp420
a(F0.63557294582561874
F0.27252952418562937
tp421
a(F0.35960525175343194
F0.8457106506825427
tp422
a(F0.077335063490745481
F0.60306469552756736
tp423
a(F0.39693799188028711
F0.81545188186206707
tp424
a(F0.26512124812634263
F0.94123800051076145
tp425
a(F0.56752743583750342
F0.42965292335425898
tp426
a(F0.30634673377399035
F0.94279897488520115
tp427
a(F0.039092286921544428
F0.60708079180722341
tp428
a(F0.07168865376286504
F0.74892095515410662
tp429
a(F0.93285868724866505
F0.33504201884525076
tp430
a(F0.97684505111276232
F0.5313192839368257
tp431
a(F0.28030364868773527
F0.84161246811613055
tp432
a(F0.68128335329419809
F0.050163411873740793
tp433
a(F0.59308384856792595
F0.20512538429533644
tp434
a(F0.76384982019409531
F0.18458712077077191
tp435
a(F0.31255431825715962
F0.92213641212248243
tp436
a(F0.60365253284352793
F0.20313020593813952
tp437
a(F0.16605201430966554
F0.93094813672869359
tp438
a(F0.60452635636495611
F0.16617195271379612
tp439
a(F0.82595106757980619
F0.16471956504457774
tp440
a(F0.45522137145052211
F0.66763139607869348
tp441
a(F0.83783689185161347
F0.062603587018363993
tp442
a(F0.75714866349039678
F0.041468527149193121
tp443
a(F0.35952931603719562
F0.88404266690208955
tp444
a(F0.94181304732011906
F0.29964486347848251
tp445
a(F0.10655637258805362
F0.68138714175205672
tp446
a(F0.04707662900109999
F0.57824695542157367
tp447
a(F0.27225598815746821
F0.90010944069343046
tp448
a(F0.36641431475605635
F0.69964821972243518
tp449
a(F0.10218554101337807
F0.66656516758650297
tp450
a(F0.9417950587424585
F0.38656111790885578
tp451
a(F0.23130997616899396
F0.96493603614692514
tp452
a(F0.88216552517189151
F0.13399991465045474
tp453
a(F0.79880851426967869
F0.053809378516475034
tp454
a(F0.81307824727115607
F0.15475363800946376
tp455
a(F0.8837807303905415
F0.24285904893301125
tp456
a(F0.7301528943561838
F0.0060064386393662295
tp457
a(F0.60225041103505361
F0.21717175108418563
tp458
a(F0.29061610573683372
F0.88214986621243208
tp459
a(F0.75288825457341468
F0.011131994101403128
tp460
a(F0.44211780811515522
F0.58264207719504679
tp461
a(F0.27922326979217105
F0.8938198952971852
tp462
a(F0.14992710529886244
F0.73710936932251458
tp463
a(F0.57896493283100314
F0.24254986371328566
tp464
a(F0.044956559803446927
F0.58598133517283491
tp465
a(F0.62451059458340652
F0.15419196046147138
tp466
a(F0.41601019853784205
F0.67270068123160887
tp467
a(F0.84722411712470591
F0.25299505768959241
tp468
a(F0.93725051993071884
F0.26440251002323117
tp469
a(F0.40870168213838365
F0.71600742733002132
tp470
a(F0.87648627117221634
F0.12540791526577844
tp471
a(F0.88989281230156292
F0.32612945408199923
tp472
a(F0.029511403195770614
F0.56170821039390539
tp473
a(F0.14385425574329602
F0.88629638740524364
tp474
a(F0.90275074251030318
F0.22462000093862053
tp475
a(F0.26588846618520279
F0.81764414794624196
tp476
a(F0.60997179035750326
F0.20464637187730977
tp477
a(F0.83903135223762648
F0.25961234829523472
tp478
a(F0.63166343304135286
F0.29639090098816789
tp479
a(F0.66649073887661991
F0.089946358937013582
tp480
a(F0.70980512340509427
F0.088705713626814897
tp481
a(F0.62835087669189471
F0.2504491152499051
tp482
a(F0.0070804202216363521
F0.57244167837339488
tp483
a(F0.095203139870637887
F0.68727400637258718
tp484
a(F0.87933239254556395
F0.27400592895911985
tp485
a(F0.99738699810385389
F0.53613295377254444
tp486
a(F0.2801547476073023
F0.86335485607704887
tp487
a(F0.31213333467762894
F0.8491146117756031
tp488
a(F0.84267435968060511
F0.14280328081031696
tp489
a(F0.78844578606285698
F0.074536338841500016
tp490
a(F0.6163737688166735
F0.32745349224516462
tp491
a(F0.54068369167108543
F0.32815368609978462
tp492
a(F0.95495381903006782
F0.47731012112530624
tp493
a(F0.28041371194302023
F0.91910972562448645
tp494
a(F0.87919656482853381
F0.28038191155912096
tp495
a(F0.48597398264082381
F0.49787197894028734
tp496
a(F0.18453665882988746
F0.84625293118677503
tp497
a(F0.26361872500461769
F0.87006357908673526
tp498
a(F0.79181785037494934
F0.10814653200191134
tp499
a(F0.87851028098629991
F0.13854866950035646
tp500
a(F0.13145290855692437
F0.81965749411874467
tp501
a(F0.20150952141183087
F0.79008772933454752
tp502
a(F0.048764148874279822
F0.66598704660781705
tp503
a(F0.17134425276498777
F0.85200964579094374
tp504
a(F0.49548096151305443
F0.55512082448391797
tp505
a(F0.25572134681185577
F0.91346889372391737
tp506
a(F0.13780085208621506
F0.86343904809245964
tp507
a(F0.55723454201982592
F0.28602604937989312
tp508
a(F0.98751537752459195
F0.53456498872452984
tp509
a(F0.55173996417530002
F0.2968238408028685
tp510
a(F0.61411538068619986
F0.30481550968959453
tp511
a(F0.24919875525370883
F0.9618882474246071
tp512
a(F0.28584237548268654
F0.86574172772144764
tp513
a(F0.97137088562604268
F0.37907163995814547
tp514
a(F0.31910269245853473
F0.94575913471684725
tp515
a(F0.63272840449921164
F0.24007647201290405
tp516
a(F0.46900245140679131
F0.66326392102471332
tp517
a(F0.39625462424003677
F0.83588537991296119
tp518
a(F0.97600459062446487
F0.50173859229183138
tp519
a(F0.49037985506122095
F0.59827494769748901
tp520
a(F0.36618877059037691
F0.86927643369381191
tp521
a(F0.8965829454818256
F0.19828792105366694
tp522
a(F0.85407410630903735
F0.26360043142487516
tp523
a(F0.2652326559280298
F0.96494261856678321
tp524
a(F0.18396858996802234
F0.88362529439243809
tp525
a(F0.99970355906725661
F0.55910563628983523
tp526
a(F0.52749484096933286
F0.33353680075776948
tp527
a(F0.76258704028928015
F0.19069424494094905
tp528
a(F0.63957660641375436
F0.14930475857142442
tp529
a(F0.5291885008944629
F0.51913373631725568
tp530
a(F0.44656720791459859
F0.68018720174446423
tp531
a(F0.16130252582145499
F0.85083488296548848
tp532
a(F0.32785221077057847
F0.92625078886526357
tp533
a(F0.77767259943990064
F0.16103602654918622
tp534
a(F0.75809387243362825
F0.072455051558410782
tp535
a(F0.66704660385934023
F0.20626476820028047
tp536
a(F0.70507616650698257
F0.19918251847507323
tp537
a(F0.23444312334152395
F0.8607254604099247
tp538
a(F0.3195845279766466
F0.80076018787640624
tp539
a(F0.43379366883838177
F0.66397211765614084
tp540
a(F0.9462723955856418
F0.34890411341242089
tp541
a(F0.27468916323785153
F0.80891180499976534
tp542
a(F0.39092864013547601
F0.79409718643431226
tp543
a(F0.98908773322111476
F0.52654291568039058
tp544
a(F0.85139558392327463
F0.11208959606838224
tp545
a(F0.36400613138118532
F0.88432141986989932
tp546
a(F0.62695145740086233
F0.13806751784910537
tp547
a(F0.73105641078966621
F0.13888612048360588
tp548
a(F0.24054964121729305
F0.84653031968370995
tp549
a(F0.78595157439489693
F0.16076471615302834
tp550
a(F0.67004041299566919
F0.12569643457378288
tp551
a(F0.3238688556709638
F0.8043090115489927
tp552
a(F0.84112889086309017
F0.099364341508453108
tp553
a(F0.088462724701029782
F0.61227741639180278
tp554
a(F0.058260595970175744
F0.71126824198095484
tp555
a(F0.93152637330107446
F0.33164286251774344
tp556
a(F0.011322817573162558
F0.56551777429847949
tp557
a(F0.59702882716684358
F0.35279643077191314
tp558
a(F0.098879125008047186
F0.79429467584911229
tp559
a(F0.575074209870167
F0.25130432632477517
tp560
a(F0.24315789914872721
F0.87518993583139892
tp561
a(F0.75620092844116382
F0.14444361888403362
tp562
a(F0.3583859505443493
F0.76604730329703496
tp563
a(F0.21285013806429642
F0.92663408465125463
tp564
a(F0.09835918233595986
F0.79861638917863487
tp565
a(F0.28307216871031593
F0.82426446080845506
tp566
a(F0.15467052976478934
F0.90422255372105609
tp567
a(F0.034414856950520045
F0.60809794981964294
tp568
a(F0.071236666093656864
F0.70364336614522127
tp569
a(F0.47487412208882163
F0.48720659713967179
tp570
a(F0.84094259998665843
F0.19766280201249467
tp571
a(F0.54806291907056526
F0.46781051091295073
tp572
a(F0.64817761809273888
F0.27665459433900808
tp573
a(F0.86031021230264837
F0.10205524247880915
tp574
a(F0.55731238652572346
F0.44480256009614638
tp575
a(F0.13925566857831984
F0.86542711998959432
tp576
a(F0.31514527420927063
F0.90974769755648444
tp577
a(F0.80342752929098848
F0.11084229181808877
tp578
a(F0.12395909330613419
F0.80597826810389384
tp579
a(F0.39306264666084445
F0.67703881247143505
tp580
a(F0.68778454638342346
F0.078216268635583425
tp581
a(F0.5058230457951195
F0.5304728673649971
tp582
a(F0.23275482389604552
F0.99313487357635932
tp583
a(F0.85279965293123405
F0.27628228345363276
tp584
a(F0.81029007669065156
F0.2265150607254619
tp585
a(F0.96544322153646844
F0.35129759608780081
tp586
a(F0.96562777877432893
F0.34233390340104264
tp587
a(F0.45405203494476065
F0.61322090889747416
tp588
a(F0.26908964071128805
F0.91094035039949672
tp589
a(F0.1858020876751213
F0.89768956790469367
tp590
a(F0.77502620984480763
F0.074856681986415
tp591
a(F0.96177886430137804
F0.35733849944875001
tp592
a(F0.54731213427700065
F0.34162864928058295
tp593
a(F0.1208915099266038
F0.78070263365457004
tp594
a(F0.21865374350536182
F0.87653295772085538
tp595
a(F0.85972036977451671
F0.24066753311510047
tp596
a(F0.036497766583594382
F0.65090479623060848
tp597
a(F0.19018031650737333
F0.78391284336414802
tp598
a(F0.66772711008814711
F0.14765135011082853
tp599
a(F0.63167202400464306
F0.12279827975329885
tp600
a(F0.58912353204358092
F0.25409554359238645
tp601
a(F0.011073522536632185
F0.46120803294107504
tp602
a(F0.38957983776642302
F0.81510223717432706
tp603
a(F0.23937710554026337
F0.90099669965544504
tp604
a(F0.77646086289001703
F0.0087155006973236165
tp605
a(F0.51175196906376375
F0.47870142460351944
tp606
a(F0.51348860371996918
F0.51022742360651796
tp607
a(F0.4336369586203318
F0.67129926475823087
tp608
a(F0.46283981282187281
F0.6399209202870102
tp609
a(F0.77647456174426044
F0.12860072000800812
tp610
a(F0.68856792950906909
F0.078302756372747723
tp611
a(F0.60162346884935614
F0.21496977458748862
tp612
a(F0.97913251354663799
F0.36049102054356186
tp613
a(F0.69784644108632266
F0.21840233703117809
tp614
a(F0.07453095661089737
F0.62211011106827641
tp615
a(F4.4250878934337656e-05
F0.48676011081782872
tp616
a(F0.87077775994732365
F0.17582065244004946
tp617
a(F0.74541364880764738
F0.0072414924788899437
tp618
a(F0.26688015668462672
F0.85727044512814732
tp619
a(F0.81337290920533745
F0.03253513317129153
tp620
a(F0.62307840040841778
F0.30343055321551748
tp621
a(F0.22564319026998902
F0.87492942472814028
tp622
a(F0.89565867708815139
F0.26140073119357882
tp623
a(F0.75557769820100085
F0.19850071108442577
tp624
a(F0.14272429288946842
F0.75896456276027591
tp625
a(F0.65902378241925619
F0.16575917559710698
tp626
a(F0.6497064135392312
F0.080878651502725663
tp627
a(F0.92183217823643182
F0.23653279873969202
tp628
a(F0.63246059719696235
F0.25467059846526074
tp629
a(F0.94961198313123141
F0.34062416588677047
tp630
a(F0.66398950394250034
F0.23253710565415286
tp631
a(F0.33125139458606379
F0.77748384422226346
tp632
a(F0.85779847826503797
F0.0918642402155979
tp633
a(F0.61360096497912076
F0.15610108729957811
tp634
a(F0.63893918867460386
F0.11341632809694008
tp635
a(F0.63124678741438334
F0.30477668711652534
tp636
a(F0.6505195297954659
F0.27531214200713439
tp637
a(F0.2716692951593298
F0.88485792871720348
tp638
a(F0.9169078353237371
F0.37624560634203452
tp639
a(F0.56675813640808426
F0.35889370914659291
tp640
a(F0.82194375355442795
F0.2009614486449082
tp641
a(F0.038199488869788745
F0.50418222928772494
tp642
a(F0.65515582170082542
F0.16332058669090438
tp643
a(F0.13479462313295332
F0.88564087798434155
tp644
a(F0.47947792631405406
F0.50545361766783581
tp645
a(F0.78616338975552713
F0.094407834260457318
tp646
a(F0.9791305207914095
F0.35758479047889252
tp647
a(F0.40997660519370405
F0.79416477901448934
tp648
a(F0.38060624891231143
F0.69017985305911167
tp649
a(F0.57521970069578165
F0.27092995739602599
tp650
a(F0.97918507101381647
F0.40777765688356754
tp651
a(F0.39731742040832296
F0.78107321902048721
tp652
a(F0.0063834163643792241
F0.45944490919715469
tp653
a(F0.77635663135695232
F0.0084265983233010877
tp654
a(F0.88992113807480766
F0.25464629002781558
tp655
a(F0.882201367080929
F0.31123966008156528
tp656
a(F0.29509890476423184
F0.94744174929582259
tp657
a(F0.10730415015374339
F0.69865619504049581
tp658
a(F0.74642923076383116
F0.065403166406758154
tp659
a(F0.7885575997478772
F0.13172456476694872
tp660
a(F0.37363234263897149
F0.69810086313079089
tp661
a(F0.51731326147411605
F0.36296691619448285
tp662
a(F0.33227968660270679
F0.92848518295689808
tp663
a(F0.26171247544283249
F0.86660932219700548
tp664
a(F0.51545270361285633
F0.52127354564359607
tp665
a(F0.58886185373673117
F0.21376291913205947
tp666
a(F0.94606660346690108
F0.37888889070043763
tp667
a(F0.81282942990439078
F0.067700919812338708
tp668
a(F0.5931650618734533
F0.20483557453677487
tp669
a(F0.52514039511392929
F0.37042059369820357
tp670
a(F0.60881535711576074
F0.29990026005662845
tp671
a(F0.48434922096423372
F0.59854612038063892
tp672
a(F0.83992531020705707
F0.10995463112719672
tp673
a(F0.713908490212943
F0.047196888721714597
tp674
a(F0.76521045108283647
F0.14769889154613475
tp675
a(F0.77985764040364935
F0.051447318115053937
tp676
a(F0.67057955198390373
F0.092024102843699745
tp677
a(F0.79064151900768376
F0.19570566662055572
tp678
a(F0.35789826895245191
F0.8682312154092684
tp679
a(F0.94221948889830065
F0.37673319831001539
tp680
a(F0.93335433545450652
F0.27806856399881147
tp681
a(F0.85486725483805692
F0.2557986678688739
tp682
a(F0.18656142314944102
F0.8638179039280014
tp683
a(F0.45338727573821935
F0.59609782710433123
tp684
a(F0.74429272524021817
F0.105354134336241
tp685
a(F0.24181129536796009
F0.9621856798728774
tp686
a(F0.32610796435867306
F0.8559695839353717
tp687
a(F0.54335670031175642
F0.32726425691774319
tp688
a(F0.9915747279175996
F0.42979013229478391
tp689
a(F0.43650647557262068
F0.67336909866768568
tp690
a(F0.16669914350421799
F0.78652362321737446
tp691
a(F0.89248682520994138
F0.24469275642423341
tp692
a(F0.59378601500577766
F0.30166216097306947
tp693
a(F0.66922461693254187
F0.064564948876628517
tp694
a(F0.92002628648485019
F0.35670546407046444
tp695
a(F0.66921947122683267
F0.14298269531626934
tp696
a(F0.015423936229922774
F0.50945353307960239
tp697
a(F0.044805233661893928
F0.56027505780230358
tp698
a(F0.43164327482323217
F0.71631995408074856
tp699
a(F0.60692960150071529
F0.30274099178252428
tp700
a(F0.33376431673582241
F0.74771659368957066
tp701
a(F0.57313018328954057
F0.38480802910760847
tp702
a(F0.52711631250353563
F0.48379355422266634
tp703
a(F0.97749194699984698
F0.51418062404761367
tp704
a(F0.079244882075515388
F0.72317789909368035
tp705
a(F0.59169933865413649
F0.32355948518594313
tp706
a(F0.44417526205614577
F0.63101302277573412
tp707
a(F0.51743878964687984
F0.40759114633868965
tp708
a(F0.88063575623161494
F0.15698253994443873
tp709
a(F0.97826868714170045
F0.39300363931837695
tp710
a(F0.83465862568698468
F0.19068112453397329
tp711
a(F0.26459250308328353
F0.85051558836811014
tp712
a(F0.18554697117408225
F0.77729749195808284
tp713
a(F0.2294246347324338
F0.88740881836041519
tp714
a(F0.63367267771162972
F0.24204729530939137
tp715
a(F0.43487439700981456
F0.67203725295486194
tp716
a(F0.35515650468570958
F0.80715918513628682
tp717
a(F0.7524394321266219
F0.041832510211521574
tp718
a(F0.53011878613571561
F0.39038885605152551
tp719
a(F0.61327014729062013
F0.27991248435872251
tp720
a(F0.39194114225955368
F0.75088902671888058
tp721
a(F0.9905156042138864
F0.53134217721748878
tp722
a(F0.7562953981380407
F0.093631564647668128
tp723
a(F0.74174250794679419
F0.14398308241249325
tp724
a(F0.56561831337516177
F0.2798889118859611
tp725
a(F0.77827449172938445
F0.15010388962712146
tp726
a(F0.84400636207352009
F0.22719225370738183
tp727
a(F0.40222918231838456
F0.73299120655795424
tp728
a(F0.73010513302147617
F0.032794151443216554
tp729
a(F0.9466946657679155
F0.35614982016109181
tp730
a(F0.91489602445401641
F0.26753397004962731
tp731
a(F0.63539854568620824
F0.28638626654857624
tp732
a(F0.4313649735344538
F0.74248361635866933
tp733
a(F0.38789923477075439
F0.76321022737548339
tp734
a(F0.075058761632097348
F0.76343651167878113
tp735
a(F0.65442618111297224
F0.084373850877688977
tp736
a(F0.72702241013349478
F0.18990304025533114
tp737
a(F0.80409538276062364
F0.11818588655778108
tp738
a(F0.65809824286946228
F0.20174272597171797
tp739
a(F0.34039866916327166
F0.79037502764116663
tp740
a(F0.82873380518287576
F0.077696135188857221
tp741
a(F0.77345184274642031
F0.17809289660543268
tp742
a(F0.14865955444286183
F0.74508731628430425
tp743
a(F0.090708833363802421
F0.81507237105185448
tp744
a(F0.77200498037083365
F0.19111143874719477
tp745
a(F0.54387818567252677
F0.35590462360093533
tp746
a(F0.074449576352928259
F0.73803542471200323
tp747
a(F0.14035465908764588
F0.71244656246346261
tp748
a(F0.91230462248179889
F0.36212593617999511
tp749
a(F0.34527848964799412
F0.78114885920915655
tp750
a(F0.41051435075194109
F0.69543556440964316
tp751
a(F0.087181472281555594
F0.68495865013017809
tp752
a(F0.80107379907093756
F0.1987954134674608
tp753
a(F0.83429460855336923
F0.14179921855795827
tp754
a(F0.97499797993751458
F0.43442279731108147
tp755
a(F0.71242420543686358
F0.081952337422363963
tp756
a(F0.19115504176975251
F0.90671151602871469
tp757
a(F0.49071183724199285
F0.60227068523584659
tp758
a(F0.37559674324144188
F0.86382642844114499
tp759
a(F0.69116445524361247
F0.15276380425220729
tp760
a(F0.54882925159442431
F0.32602520885151576
tp761
a(F0.27015550323806836
F0.88277427311970857
tp762
a(F0.78905669587404448
F0.059862745472008358
tp763
a(F0.92939962610409566
F0.26977708477928725
tp764
a(F0.96909919504890163
F0.43615727281610139
tp765
a(F0.18928681171758643
F0.83384530735792128
tp766
a(F0.064206502257729059
F0.74126233588117274
tp767
a(F0.37438654676904137
F0.87456573297269902
tp768
a(F0.35697695270812979
F0.88432094731038036
tp769
a(F0.73170358319681172
F0.20100792805675335
tp770
a(F0.0012287769381400526
F0.49160852975288594
tp771
a(F0.37690821562881538
F0.74157183239342561
tp772
a(F0.79782371916749606
F0.19269355967168411
tp773
a(F0.67057458167718065
F0.22149679449854584
tp774
a(F0.91488787345478195
F0.26179278866316824
tp775
a(F0.15333627438013353
F0.86868979653038547
tp776
a(F0.71709912003821263
F0.030991830539743262
tp777
a(F0.94130920159736886
F0.40847123017260462
tp778
a(F0.24601655762093599
F0.91848680915277514
tp779
a(F0.90055807626468842
F0.26306479388048487
tp780
a(F0.98101731573317486
F0.53664639501539424
tp781
a(F0.83466152054093734
F0.16274981595023871
tp782
a(F0.18617469868103331
F0.78212831144011541
tp783
a(F0.68648945113877069
F0.20455014211170663
tp784
a(F0.74172582727766656
F0.066551283934885255
tp785
a(F0.67266841334922522
F0.12148759641489196
tp786
a(F0.38612785013851891
F0.6997700241875755
tp787
a(F0.80421937427273182
F0.11071327978132343
tp788
a(F0.58743809704691341
F0.26091041962561262
tp789
a(F0.53961352706642318
F0.40626902728823072
tp790
a(F0.6387179133959856
F0.28246632338262062
tp791
a(F0.54379609994004208
F0.46370298315969172
tp792
a(F0.47153020275477631
F0.6363384634635596
tp793
a(F0.7725100506220165
F0.011120488698826841
tp794
a(F0.28723679960312209
F0.97808537765001524
tp795
a(F0.95509771283220257
F0.4001412894045398
tp796
a(F0.38909174618061171
F0.6835883868538325
tp797
a(F0.85160408391125375
F0.14738604663002658
tp798
a(F0.44972126615708918
F0.64579394751865171
tp799
a(F0.58766685540641361
F0.31129291991671149
tp800
a(F0.33399067936391436
F0.89029587197271354
tp801
a(F0.015504691894644984
F0.51443168797669736
tp802
a(F0.74934398925799517
F0.026588417640530812
tp803
a(F0.29346477739650501
F0.96613715778207754
tp804
a(F0.5677756440866617
F0.40882332783948494
tp805
a(F0.026626802065228272
F0.55300615383050389
tp806
a(F0.70191902355251168
F0.13686751688894899
tp807
a(F0.074048735592762482
F0.60819841050028289
tp808
a(F0.9634769231367134
F0.49053876243461769
tp809
a(F0.17056534224317788
F0.93462355266293595
tp810
a(F0.41397464459850519
F0.65777556670365289
tp811
a(F0.59074970165007201
F0.38345185058000342
tp812
a(F0.75012623126205158
F0.17568204016674488
tp813
a(F0.58483320371585468
F0.36344011713104396
tp814
a(F0.64861310326706878
F0.21387371874158179
tp815
a(F0.55045966286155157
F0.39921075812276996
tp816
a(F0.46064368237777276
F0.66490881830987081
tp817
a(F0.8640462921929799
F0.24449287828976524
tp818
a(F0.89153958385910259
F0.28723484318035997
tp819
a(F0.9973214515730251
F0.59314905903946302
tp820
a(F0.22898277782824183
F0.93110344558322633
tp821
a(F0.21368604136134528
F0.93616311635122418
tp822
a(F0.33207308852270767
F0.74820928488891603
tp823
a(F0.92608666705220188
F0.24829099781693853
tp824
a(F0.63816399878403063
F0.13048997569970378
tp825
a(F0.65998020549318015
F0.19562791015113878
tp826
a(F0.34315737979710115
F0.80295120082569982
tp827
a(F0.15363500218275594
F0.90809144831498689
tp828
a(F0.82072562646165137
F0.056226956004382489
tp829
a(F0.73180658562378187
F0.1797634903994548
tp830
a(F0.2036644544856876
F0.88038433870975386
tp831
a(F0.31167043520757454
F0.92209688809047652
tp832
a(F0.72017684540843929
F0.20460210472109083
tp833
a(F0.22862208402162787
F0.89831743064372294
tp834
a(F0.43280942524077981
F0.56409203450797996
tp835
a(F0.74082846267737246
F0.085976208001087434
tp836
a(F0.32952324994555438
F0.77589642683994087
tp837
a(F0.16262498695389105
F0.79927765737716416
tp838
a(F0.033575355103065974
F0.63873808657541575
tp839
a(F0.50775404849802142
F0.40822944861956029
tp840
a(F0.014429457337206464
F0.5383262239094585
tp841
a(F0.09093847116642706
F0.73135950515637282
tp842
a(F0.25147644797896329
F0.99947777717384545
tp843
a(F0.57961732349491346
F0.38656429918375057
tp844
a(F0.78701563369608785
F0.11785544322032902
tp845
a(F0.11904023069671366
F0.71689392965839538
tp846
a(F0.8963668974146739
F0.27937616748693728
tp847
a(F0.376320934782989
F0.80891802612589236
tp848
a(F0.034361399615492116
F0.55160141350024594
tp849
a(F0.73414755452962011
F0.18207946061118765
tp850
a(F0.55771012396492115
F0.31614402160650623
tp851
a(F0.38057222139066715
F0.78440922208574293
tp852
a(F0.51171230043559213
F0.47110434360843234
tp853
a(F0.84588873757278193
F0.10353508021873239
tp854
a(F0.18910536035498715
F0.83103915606793843
tp855
a(F0.9976314616039087
F0.48741078485251277
tp856
a(F0.267816509998973
F0.95623554608300654
tp857
a(F0.096058100920013878
F0.6420340782769075
tp858
a(F0.76141507105531081
F0.068958359572910258
tp859
a(F0.83581060520318518
F0.1063658227396283
tp860
a(F0.75080652142689741
F0.030496049469588435
tp861
a(F0.019411803162370678
F0.5458956361498466
tp862
a(F0.012611076571994007
F0.47729790614005141
tp863
a(F0.71093731187751885
F0.14023481701913648
tp864
a(F0.763038577621861
F0.14714673915525356
tp865
a(F0.11299911762695747
F0.75915106698591284
tp866
a(F0.024722835646845187
F0.50930418081426343
tp867
a(F0.16272554634714442
F0.79664380286153513
tp868
a(F0.13088337862984811
F0.72113460664611728
tp869
a(F0.69998260366309772
F0.16790473040792239
tp870
a(F0.92611522887707043
F0.23164198806483549
tp871
a(F0.89345077292789721
F0.26669477114282653
tp872
a(F0.28355524366915263
F0.80121142103885035
tp873
a(F0.81272430611158297
F0.073589537137759439
tp874
a(F0.6377339598741798
F0.22733408975583125
tp875
a(F0.37755212139718775
F0.72857000558146001
tp876
a(F0.72322283306351254
F0.036872095098171243
tp877
a(F0.53117509255305551
F0.32910134090078746
tp878
a(F0.72857393096033296
F0.029471661806509564
tp879
a(F0.75211651859588857
F0.070214911498683211
tp880
a(F0.7797181650944538
F0.14370453090788976
tp881
a(F0.04830383128690241
F0.59656216950636853
tp882
a(F0.21399774374545155
F0.9726151605855915
tp883
a(F0.83988290591374037
F0.16894585666038689
tp884
a(F0.12787895289191487
F0.83452641184384135
tp885
a(F0.48099377708519575
F0.52846129519887441
tp886
a(F0.10840167576256288
F0.8063693864114726
tp887
a(F0.79523603071869653
F0.053575894183473749
tp888
a(F0.29027786803746314
F0.93854835542146553
tp889
a(F0.26173637845966535
F0.85714382980451054
tp890
a(F0.23731103797264586
F0.93908923060345129
tp891
a(F0.42830545609399284
F0.61812698594848836
tp892
a(F0.55710763028317412
F0.28943840672512533
tp893
a(F0.5237271380508739
F0.51757455294545585
tp894
a(F0.60013145504425647
F0.36196206071059356
tp895
a(F0.98836069334021726
F0.50447478679162094
tp896
a(F0.82836893530809308
F0.098177686152266741
tp897
a(F0.98254055621393599
F0.42570790087361371
tp898
a(F0.063515598023590081
F0.75017196737264724
tp899
a(F0.69288872042596428
F0.21742889406663152
tp900
a(F0.74990175137419623
F0.075015595203351576
tp901
a(F0.24571868763851168
F0.98904175890269708
tp902
a(F0.9605449940138181
F0.34300178129821418
tp903
a(F0.90577862894687222
F0.35147191290855795
tp904
a(F0.20856640498605183
F0.84379740437603445
tp905
a(F0.69575178561480244
F0.10447492691843296
tp906
a(F0.90562688567594118
F0.31407389552718523
tp907
a(F0.17436887214898322
F0.77877213979941873
tp908
a(F0.78401855537166165
F0.052862791926709014
tp909
a(F0.50064833879366355
F0.42887541627968662
tp910
a(F0.83528453249973755
F0.23645479870999195
tp911
a(F0.6971269074802352
F0.20436471874840242
tp912
a(F0.51355932901336665
F0.51031764944167346
tp913
a(F0.44888942342655758
F0.56104265016069588
tp914
a(F0.55515636385778844
F0.3562583233022828
tp915
a(F0.86318804390288018
F0.18752505513683099
tp916
a(F0.39718724724944809
F0.69767205653969611
tp917
a(F0.75556651534411223
F0.16573642006585462
tp918
a(F0.05302169749315977
F0.55844400517082471
tp919
a(F0.61109205804727162
F0.32676490821420645
tp920
a(F0.083673268035774129
F0.66556418785688687
tp921
a(F0.81943182475031517
F0.20343138087216014
tp922
a(F0.59221898845903453
F0.20860921513331104
tp923
a(F0.39108998114363547
F0.73834099757791627
tp924
a(F0.64770935558803133
F0.15970225929119028
tp925
a(F0.84071887550519242
F0.22752266318831754
tp926
a(F0.92227172847959871
F0.34073329628410565
tp927
a(F0.08223938471074832
F0.77791442425482149
tp928
a(F0.67770042650908435
F0.042719338171138863
tp929
a(F0.82473255125582123
F0.16852860508680081
tp930
a(F0.31990501365998447
F0.78999754123061805
tp931
a(F0.18843432023694817
F0.86751538963001384
tp932
a(F0.67610110404822843
F0.17879551929409099
tp933
a(F0.76599183379124214
F0.15174681332933543
tp934
a(F0.72710653841523687
F0.032830661488859658
tp935
a(F0.35884224703648981
F0.8747696396928778
tp936
a(F0.54645517019853596
F0.43042617192520571
tp937
a(F0.75799047251189855
F0.11241791885359571
tp938
a(F0.31234321633660411
F0.77132150753977957
tp939
a(F0.1064107269298904
F0.71225375106147526
tp940
a(F0.78662653989882869
F0.019095362841987165
tp941
a(F0.48183381284461546
F0.63047897422439547
tp942
a(F0.39020627982281253
F0.72326480507265734
tp943
a(F0.86497572651223487
F0.16819500954701269
tp944
a(F0.46902823988716447
F0.58676008852534911
tp945
a(F0.40419196722966777
F0.79476324183674052
tp946
a(F0.34353295496700742
F0.87816583259062475
tp947
a(F0.37097618800902121
F0.7676370263954877
tp948
a(F0.53679822429078061
F0.41792631109939909
tp949
a(F0.95652365703045983
F0.46169056486513899
tp950
a(F0.22902769311681359
F0.95360299218382383
tp951
a(F0.55419294054138368
F0.45016362274398991
tp952
a(F0.39918127625891708
F0.67572621585111303
tp953
a(F0.81520924037338482
F0.22648668908492395
tp954
a(F0.96253872118563266
F0.30778866760435591
tp955
a(F0.84108185779081823
F0.079341033125554961
tp956
a(F0.42751426167647155
F0.72181314619449888
tp957
a(F0.28235512095484094
F0.95390048154944418
tp958
a(F0.3434789593886004
F0.92867995207917731
tp959
a(F0.33226793605312532
F0.87212355634608885
tp960
a(F0.40318072974599894
F0.82483542425216771
tp961
a(F0.33404976202065473
F0.75950785052636693
tp962
a(F0.82909186936146806
F0.20688703109991247
tp963
a(F0.036757051507614769
F0.51384831669467046
tp964
a(F0.052732362518769893
F0.56990582189900574
tp965
a(F0.18883112476636421
F0.83096929614144854
tp966
a(F0.47389909894648274
F0.66236047057924607
tp967
a(F0.3775878008534348
F0.71955795418222024
tp968
a(F0.12012279987227503
F0.84198614069042477
tp969
a(F0.88555272391954953
F0.28233140500844056
tp970
a(F0.05098424127043244
F0.68896931444092635
tp971
a(F0.41032233148984143
F0.64996952115414741
tp972
a(F0.52520825753190459
F0.40940967790907667
tp973
a(F0.37370321619401548
F0.83214597658592138
tp974
a(F0.35851632677385636
F0.85631758757115795
tp975
a(F0.79772536522743209
F0.028793546645835222
tp976
a(F0.94025716565437878
F0.40918888819911797
tp977
a(F0.84374565533681944
F0.11008215811681447
tp978
a(F0.44040982773586124
F0.63599714122144968
tp979
a(F0.10519022395039379
F0.78206835268398323
tp980
a(F0.25861790816479702
F0.88302133749496159
tp981
a(F0.75466574929716257
F0.10197680865368189
tp982
a(F0.618601781365959
F0.21310219976670655
tp983
a(F0.14697411744220867
F0.84759849324499559
tp984
a(F0.91120218506449979
F0.3745370452282617
tp985
a(F0.79783947776365671
F0.12562222253608463
tp986
a(F0.87191858335375028
F0.21695859191907035
tp987
a(F0.026108772728425156
F0.50061480714284257
tp988
a(F0.81551557347466175
F0.2210295514584727
tp989
a(F0.29394548221983408
F0.91168219751558355
tp990
a(F0.84302202471988119
F0.19462489037329922
tp991
a(F0.62171582385866131
F0.30894471948100299
tp992
a(F0.73999382111471346
F0.17825004077684006
tp993
a(F0.63672273055892581
F0.26943086066759275
tp994
a(F0.040463627448663719
F0.52067137669123786
tp995
a(F0.8223741721110539
F0.046307074471670179
tp996
a(F0.1854739909321711
F0.77923150231192873
tp997
a(F0.56407206164787238
F0.26911880344704209
tp998
a(F0.58229037286037244
F0.22852395715664803
tp999
a(F0.075993643899545993
F0.61706971096429175
tp1000
a(F0.38632093322750283
F0.84049895338996294
tp1001
a.